target datalayout = "e-m:e-p270:32:32-p271:32:32-p272:64:64-i64:64-i128:128-f80:128-n8:16:32:64-S128"
target triple = "x86_64-pc-linux-gnu"

%struct.SDL_MessageBoxDataX11 = type { ptr, i32, i64, i64, i8, i64, i64, i64, i32, i32, ptr, ptr, i32, i32, i32, i32, ptr, ptr, i32, i32, i32, ptr, [8 x %struct.SDL_MessageBoxButtonDataX11], [5 x i32], ptr }
%struct.SDL_MessageBoxButtonDataX11 = type { i32, i32, i32, i32, %struct.SDL_Rect, ptr }
%struct.SDL_Rect = type { i32, i32, i32, i32 }
%struct.XAnyEvent = type { i32, i64, i32, ptr, i64 }

; Function Attrs: nounwind uwtable
define internal i32 @X11_MessageBoxEventTest(ptr noundef %0, ptr noundef %1, ptr noundef %2) #0 {
  %4 = alloca ptr, align 8
  %5 = alloca ptr, align 8
  %6 = alloca ptr, align 8
  %7 = alloca ptr, align 8
  store ptr %0, ptr %4, align 8
  store ptr %1, ptr %5, align 8
  store ptr %2, ptr %6, align 8
  call void @llvm.lifetime.start.p0(i64 8, ptr %7) #8
  %8 = load ptr, ptr %6, align 8
  store ptr %8, ptr %7, align 8
  %9 = load ptr, ptr %5, align 8
  %10 = getelementptr inbounds nuw %struct.XAnyEvent, ptr %9, i32 0, i32 3
  %11 = load ptr, ptr %10, align 8
  %12 = load ptr, ptr %7, align 8
  %13 = getelementptr inbounds nuw %struct.SDL_MessageBoxDataX11, ptr %12, i32 0, i32 0
  %14 = load ptr, ptr %13, align 8
  %15 = icmp eq ptr %11, %14
  br i1 %15, label %16, label %24

16:                                               ; preds = %3
  %17 = load ptr, ptr %5, align 8
  %18 = getelementptr inbounds nuw %struct.XAnyEvent, ptr %17, i32 0, i32 4
  %19 = load i64, ptr %18, align 8
  %20 = load ptr, ptr %7, align 8
  %21 = getelementptr inbounds nuw %struct.SDL_MessageBoxDataX11, ptr %20, i32 0, i32 2
  %22 = load i64, ptr %21, align 8
  %23 = icmp eq i64 %19, %22
  br label %24

24:                                               ; preds = %16, %3
  %25 = phi i1 [ false, %3 ], [ %23, %16 ]
  %26 = select i1 %25, i32 1, i32 0
  call void @llvm.lifetime.end.p0(i64 8, ptr %7) #8
  ret i32 %26
}