; Function Attrs: mustprogress nofree norecurse nosync nounwind willreturn memory(argmem: read) uwtable
define internal range(i32 0, 2) i32 @X11_MessageBoxEventTest(ptr readnone captures(none) %0, ptr noundef readonly captures(none) %1, ptr noundef readonly captures(none) %2) #9 {
  %4 = getelementptr inbounds nuw i8, ptr %1, i64 24
  %5 = load ptr, ptr %4, align 8
  %6 = load ptr, ptr %2, align 8
  %7 = icmp eq ptr %5, %6
  br i1 %7, label %8, label %15

8:                                                ; preds = %3
  %9 = getelementptr inbounds nuw i8, ptr %1, i64 32
  %10 = load i64, ptr %9, align 8
  %11 = getelementptr inbounds nuw i8, ptr %2, i64 16
  %12 = load i64, ptr %11, align 8
  %13 = icmp eq i64 %10, %12
  %14 = zext i1 %13 to i32
  br label %15

15:                                               ; preds = %8, %3
  %16 = phi i32 [ 0, %3 ], [ %14, %8 ]
  ret i32 %16
}